; Function Attrs: mustprogress uwtable
define internal void @_ZN5arrow8internal12_GLOBAL__N_115SerialTaskGroup11FinishAsyncEv(ptr dead_on_unwind noalias writable sret(%"class.arrow::Future") align 8 %0, ptr noundef nonnull align 8 dereferenceable(49) %1) unnamed_addr #0 align 2 personality ptr @__gxx_personality_v0 {
  %3 = alloca %"class.arrow::Status", align 8
  %4 = load ptr, ptr %1, align 8, !tbaa !15
  %5 = load ptr, ptr %4, align 8
  call void %5(ptr dead_on_unwind nonnull writable sret(%"class.arrow::Status") align 8 %3, ptr noundef nonnull align 8 dereferenceable(49) %1)
  invoke void @_ZN5arrow6FutureINS_8internal5EmptyEE12MakeFinishedIS2_vEES3_NS_6StatusE(ptr dead_on_unwind writable sret(%"class.arrow::Future") align 8 %0, ptr noundef nonnull %3)
          to label %6 unwind label %13

6:                                                ; preds = %2
  %7 = load ptr, ptr %3, align 8, !tbaa !17
  %.not.i = icmp eq ptr %7, null
  br i1 %.not.i, label %_ZN5arrow6StatusD2Ev.exit, label %8, !prof !66

8:                                                ; preds = %6
  %9 = getelementptr inbounds nuw i8, ptr %7, i64 1
  %10 = load i8, ptr %9, align 1, !tbaa !67, !range !64, !noundef !65
  %11 = trunc nuw i8 %10 to i1
  br i1 %11, label %_ZN5arrow6StatusD2Ev.exit, label %12

12:                                               ; preds = %8
  call void @_ZN5arrow6Status11DeleteStateEv(ptr noundef nonnull align 8 dereferenceable(8) %3) #23
  br label %_ZN5arrow6StatusD2Ev.exit

_ZN5arrow6StatusD2Ev.exit:                        ; preds = %6, %8, %12
  ret void

13:                                               ; preds = %2
  %14 = landingpad { ptr, i32 }
          cleanup
  %15 = load ptr, ptr %3, align 8, !tbaa !17
  %.not.i2 = icmp eq ptr %15, null
  br i1 %.not.i2, label %_ZN5arrow6StatusD2Ev.exit3, label %16, !prof !66

16:                                               ; preds = %13
  %17 = getelementptr inbounds nuw i8, ptr %15, i64 1
  %18 = load i8, ptr %17, align 1, !tbaa !67, !range !64, !noundef !65
  %19 = trunc nuw i8 %18 to i1
  br i1 %19, label %_ZN5arrow6StatusD2Ev.exit3, label %20

20:                                               ; preds = %16
  call void @_ZN5arrow6Status11DeleteStateEv(ptr noundef nonnull align 8 dereferenceable(8) %3) #23
  br label %_ZN5arrow6StatusD2Ev.exit3

_ZN5arrow6StatusD2Ev.exit3:                       ; preds = %13, %16, %20
  resume { ptr, i32 } %14
}